; Function Attrs: mustprogress nofree norecurse nosync nounwind willreturn memory(argmem: readwrite) uwtable
define hidden range(i32 0, 203) i32 @eventFilter_setSourceNameMatchFilter(ptr nocapture noundef %0, i32 noundef %1, ptr noundef %2) local_unnamed_addr #3 {
  %4 = getelementptr inbounds i8, ptr %0, i64 48
  %5 = getelementptr inbounds i8, ptr %0, i64 56
  %6 = sext i32 %1 to i64
  %7 = getelementptr inbounds [10000 x %struct.Filter_], ptr %5, i64 0, i64 %6
  %8 = getelementptr inbounds i8, ptr %7, i64 8
  %9 = load i32, ptr %4, align 8
  %.not = icmp sgt i32 %9, %1
  br i1 %.not, label %10, label %14

10:                                               ; preds = %3
  %11 = getelementptr inbounds i8, ptr %0, i64 4
  %12 = load i32, ptr %11, align 4
  %.not9 = icmp eq i32 %12, 7
  br i1 %.not9, label %13, label %14

13:                                               ; preds = %10
  store i8 12, ptr %7, align 8
  store ptr %2, ptr %8, align 8
  br label %14

14:                                               ; preds = %10, %3, %13
  %.0 = phi i32 [ 0, %13 ], [ 202, %3 ], [ 202, %10 ]
  ret i32 %.0
}